target datalayout = "e-m:e-p270:32:32-p271:32:32-p272:64:64-i64:64-i128:128-f80:128-n8:16:32:64-S128"
target triple = "x86_64-pc-linux-gnu"

; Function Attrs: nounwind uwtable
define i32 @Java_sun_nio_ch_UnixFileDispatcherImpl_pwrite0(ptr noundef %0, ptr noundef %1, ptr noundef %2, i64 noundef %3, i32 noundef %4, i64 noundef %5) #0 {
  %7 = alloca ptr, align 8
  %8 = alloca ptr, align 8
  %9 = alloca ptr, align 8
  %10 = alloca i64, align 8
  %11 = alloca i32, align 4
  %12 = alloca i64, align 8
  %13 = alloca i32, align 4
  %14 = alloca ptr, align 8
  store ptr %0, ptr %7, align 8
  store ptr %1, ptr %8, align 8
  store ptr %2, ptr %9, align 8
  store i64 %3, ptr %10, align 8
  store i32 %4, ptr %11, align 4
  store i64 %5, ptr %12, align 8
  %15 = load ptr, ptr %7, align 8
  %16 = load ptr, ptr %9, align 8
  %17 = call i32 @fdval(ptr noundef %15, ptr noundef %16)
  store i32 %17, ptr %13, align 4
  %18 = load i64, ptr %10, align 8
  %19 = inttoptr i64 %18 to ptr
  store ptr %19, ptr %14, align 8
  %20 = load ptr, ptr %7, align 8
  %21 = load i32, ptr %13, align 4
  %22 = load ptr, ptr %14, align 8
  %23 = load i32, ptr %11, align 4
  %24 = sext i32 %23 to i64
  %25 = load i64, ptr %12, align 8
  %26 = call i64 @pwrite64(i32 noundef %21, ptr noundef %22, i64 noundef %24, i64 noundef %25)
  %27 = trunc i64 %26 to i32
  %28 = call i32 @convertReturnVal(ptr noundef %20, i32 noundef %27, i8 noundef zeroext 0)
  ret i32 %28
}