; Function Attrs: nounwind uwtable
define i32 @Java_sun_nio_ch_UnixFileDispatcherImpl_pwrite0(ptr noundef %0, ptr nocapture noundef readnone %1, ptr noundef %2, i64 noundef %3, i32 noundef %4, i64 noundef %5) local_unnamed_addr #0 {
  %7 = tail call i32 @fdval(ptr noundef %0, ptr noundef %2) #6
  %8 = inttoptr i64 %3 to ptr
  %9 = sext i32 %4 to i64
  %10 = tail call i64 @pwrite64(i32 noundef %7, ptr noundef %8, i64 noundef %9, i64 noundef %5) #6
  %11 = trunc i64 %10 to i32
  %12 = tail call i32 @convertReturnVal(ptr noundef %0, i32 noundef %11, i8 noundef zeroext 0) #6
  ret i32 %12
}